; Function Attrs: mustprogress nofree norecurse nosync nounwind memory(readwrite, inaccessiblemem: none) uwtable
define hidden void @_ZN7testing8internal12UnitTestImpl14UnshuffleTestsEv(ptr noundef nonnull readonly align 8 captures(none) dereferenceable(401) %0) local_unnamed_addr #30 align 2 {
  %2 = getelementptr inbounds nuw i8, ptr %0, i64 128
  %3 = getelementptr inbounds nuw i8, ptr %0, i64 136
  %4 = load ptr, ptr %3, align 8
  %5 = load ptr, ptr %2, align 8
  %.not = icmp eq ptr %4, %5
  br i1 %.not, label %._crit_edge, label %.lr.ph

.lr.ph:                                           ; preds = %1
  %6 = getelementptr inbounds nuw i8, ptr %0, i64 152
  br label %7

._crit_edge:                                      ; preds = %_ZN7testing8TestCase14UnshuffleTestsEv.exit, %1
  ret void

7:                                                ; preds = %.lr.ph, %_ZN7testing8TestCase14UnshuffleTestsEv.exit
  %8 = phi ptr [ %5, %.lr.ph ], [ %31, %_ZN7testing8TestCase14UnshuffleTestsEv.exit ]
  %.05 = phi i64 [ 0, %.lr.ph ], [ %29, %_ZN7testing8TestCase14UnshuffleTestsEv.exit ]
  %9 = getelementptr inbounds nuw ptr, ptr %8, i64 %.05
  %10 = load ptr, ptr %9, align 8
  %11 = getelementptr inbounds nuw i8, ptr %10, i64 72
  %12 = getelementptr inbounds nuw i8, ptr %10, i64 80
  %13 = load ptr, ptr %12, align 8
  %14 = load ptr, ptr %11, align 8
  %.not.i = icmp eq ptr %13, %14
  br i1 %.not.i, label %_ZN7testing8TestCase14UnshuffleTestsEv.exit, label %.lr.ph.i

.lr.ph.i:                                         ; preds = %7, %.lr.ph.i
  %15 = phi ptr [ %20, %.lr.ph.i ], [ %14, %7 ]
  %.04.i = phi i64 [ %18, %.lr.ph.i ], [ 0, %7 ]
  %16 = trunc i64 %.04.i to i32
  %17 = getelementptr inbounds nuw i32, ptr %15, i64 %.04.i
  store i32 %16, ptr %17, align 4
  %18 = add nuw i64 %.04.i, 1
  %19 = load ptr, ptr %12, align 8
  %20 = load ptr, ptr %11, align 8
  %21 = ptrtoint ptr %19 to i64
  %22 = ptrtoint ptr %20 to i64
  %23 = sub i64 %21, %22
  %24 = ashr exact i64 %23, 2
  %25 = icmp ult i64 %18, %24
  br i1 %25, label %.lr.ph.i, label %_ZN7testing8TestCase14UnshuffleTestsEv.exit, !llvm.loop !263

_ZN7testing8TestCase14UnshuffleTestsEv.exit:      ; preds = %.lr.ph.i, %7
  %26 = trunc i64 %.05 to i32
  %27 = load ptr, ptr %6, align 8
  %28 = getelementptr inbounds nuw i32, ptr %27, i64 %.05
  store i32 %26, ptr %28, align 4
  %29 = add nuw i64 %.05, 1
  %30 = load ptr, ptr %3, align 8
  %31 = load ptr, ptr %2, align 8
  %32 = ptrtoint ptr %30 to i64
  %33 = ptrtoint ptr %31 to i64
  %34 = sub i64 %32, %33
  %35 = ashr exact i64 %34, 3
  %36 = icmp ult i64 %29, %35
  br i1 %36, label %7, label %._crit_edge, !llvm.loop !414
}